target datalayout = "e-m:e-p270:32:32-p271:32:32-p272:64:64-i64:64-i128:128-f80:128-n8:16:32:64-S128"
target triple = "x86_64-pc-linux-gnu"

%struct.PartitionKeyData = type { i32, i16, ptr, ptr, ptr, ptr, ptr, ptr, ptr, ptr, ptr, ptr, ptr, ptr }
%union.ListCell = type { ptr }
%struct.ForEachState = type { ptr, i32 }
%struct.List = type { i32, i32, i32, ptr, [0 x %union.ListCell] }
%struct.Const = type { %struct.Expr, i32, i32, i32, i32, i64, i8, i8, i32 }
%struct.Expr = type { i32 }
%struct.PartitionRangeDatum = type { i32, i32, ptr, i32 }
%struct.PartitionRangeBound = type { i32, ptr, ptr, i8 }

@.str.1 = private unnamed_addr constant [13 x i8] c"partbounds.c\00", align 1
@.str.23 = private unnamed_addr constant [26 x i8] c"invalid range bound datum\00", align 1
@__func__.make_one_partition_rbound = private unnamed_addr constant [26 x i8] c"make_one_partition_rbound\00", align 1

; Function Attrs: nounwind uwtable
define internal ptr @make_one_partition_rbound(ptr noundef %0, i32 noundef %1, ptr noundef %2, i1 noundef zeroext %3) #0 {
  %5 = alloca ptr, align 8
  %6 = alloca i32, align 4
  %7 = alloca ptr, align 8
  %8 = alloca i8, align 1
  %9 = alloca ptr, align 8
  %10 = alloca ptr, align 8
  %11 = alloca i32, align 4
  %12 = alloca %struct.ForEachState, align 8
  %13 = alloca ptr, align 8
  %14 = alloca ptr, align 8
  store ptr %0, ptr %5, align 8
  store i32 %1, ptr %6, align 4
  store ptr %2, ptr %7, align 8
  %15 = zext i1 %3 to i8
  store i8 %15, ptr %8, align 1
  call void @llvm.lifetime.start.p0(i64 8, ptr %9) #9
  call void @llvm.lifetime.start.p0(i64 8, ptr %10) #9
  call void @llvm.lifetime.start.p0(i64 4, ptr %11) #9
  %16 = call ptr @palloc0(i64 noundef 32)
  store ptr %16, ptr %9, align 8
  %17 = load i32, ptr %6, align 4
  %18 = load ptr, ptr %9, align 8
  %19 = getelementptr inbounds nuw %struct.PartitionRangeBound, ptr %18, i32 0, i32 0
  store i32 %17, ptr %19, align 8
  %20 = load ptr, ptr %5, align 8
  %21 = getelementptr inbounds nuw %struct.PartitionKeyData, ptr %20, i32 0, i32 1
  %22 = load i16, ptr %21, align 4
  %23 = sext i16 %22 to i64
  %24 = mul i64 %23, 8
  %25 = call ptr @palloc0(i64 noundef %24)
  %26 = load ptr, ptr %9, align 8
  %27 = getelementptr inbounds nuw %struct.PartitionRangeBound, ptr %26, i32 0, i32 1
  store ptr %25, ptr %27, align 8
  %28 = load ptr, ptr %5, align 8
  %29 = getelementptr inbounds nuw %struct.PartitionKeyData, ptr %28, i32 0, i32 1
  %30 = load i16, ptr %29, align 4
  %31 = sext i16 %30 to i64
  %32 = mul i64 %31, 4
  %33 = call ptr @palloc0(i64 noundef %32)
  %34 = load ptr, ptr %9, align 8
  %35 = getelementptr inbounds nuw %struct.PartitionRangeBound, ptr %34, i32 0, i32 2
  store ptr %33, ptr %35, align 8
  %36 = load i8, ptr %8, align 1, !range !6, !noundef !7
  %37 = trunc i8 %36 to i1
  %38 = load ptr, ptr %9, align 8
  %39 = getelementptr inbounds nuw %struct.PartitionRangeBound, ptr %38, i32 0, i32 3
  %40 = zext i1 %37 to i8
  store i8 %40, ptr %39, align 8
  store i32 0, ptr %11, align 4
  call void @llvm.lifetime.start.p0(i64 16, ptr %12) #9
  %41 = getelementptr inbounds nuw %struct.ForEachState, ptr %12, i32 0, i32 0
  %42 = load ptr, ptr %7, align 8
  store ptr %42, ptr %41, align 8
  %43 = getelementptr inbounds nuw %struct.ForEachState, ptr %12, i32 0, i32 1
  store i32 0, ptr %43, align 8
  %44 = getelementptr i8, ptr %12, i64 12
  call void @llvm.memset.p0.i64(ptr align 4 %44, i8 0, i64 4, i1 false)
  br label %45

45:                                               ; preds = %119, %4
  %46 = getelementptr inbounds nuw %struct.ForEachState, ptr %12, i32 0, i32 0
  %47 = load ptr, ptr %46, align 8
  %48 = icmp ne ptr %47, null
  br i1 %48, label %49, label %66

49:                                               ; preds = %45
  %50 = getelementptr inbounds nuw %struct.ForEachState, ptr %12, i32 0, i32 1
  %51 = load i32, ptr %50, align 8
  %52 = getelementptr inbounds nuw %struct.ForEachState, ptr %12, i32 0, i32 0
  %53 = load ptr, ptr %52, align 8
  %54 = getelementptr inbounds nuw %struct.List, ptr %53, i32 0, i32 1
  %55 = load i32, ptr %54, align 4
  %56 = icmp slt i32 %51, %55
  br i1 %56, label %57, label %66

57:                                               ; preds = %49
  %58 = getelementptr inbounds nuw %struct.ForEachState, ptr %12, i32 0, i32 0
  %59 = load ptr, ptr %58, align 8
  %60 = getelementptr inbounds nuw %struct.List, ptr %59, i32 0, i32 3
  %61 = load ptr, ptr %60, align 8
  %62 = getelementptr inbounds nuw %struct.ForEachState, ptr %12, i32 0, i32 1
  %63 = load i32, ptr %62, align 8
  %64 = sext i32 %63 to i64
  %65 = getelementptr inbounds %union.ListCell, ptr %61, i64 %64
  store ptr %65, ptr %10, align 8
  br label %67

66:                                               ; preds = %49, %45
  store ptr null, ptr %10, align 8
  br label %67

67:                                               ; preds = %66, %57
  %68 = phi i32 [ 1, %57 ], [ 0, %66 ]
  %69 = icmp ne i32 %68, 0
  br i1 %69, label %71, label %70

70:                                               ; preds = %67
  call void @llvm.lifetime.end.p0(i64 16, ptr %12) #9
  br label %123

71:                                               ; preds = %67
  call void @llvm.lifetime.start.p0(i64 8, ptr %13) #9
  %72 = load ptr, ptr %10, align 8
  %73 = load ptr, ptr %72, align 8
  store ptr %73, ptr %13, align 8
  %74 = load ptr, ptr %13, align 8
  %75 = getelementptr inbounds nuw %struct.PartitionRangeDatum, ptr %74, i32 0, i32 1
  %76 = load i32, ptr %75, align 4
  %77 = load ptr, ptr %9, align 8
  %78 = getelementptr inbounds nuw %struct.PartitionRangeBound, ptr %77, i32 0, i32 2
  %79 = load ptr, ptr %78, align 8
  %80 = load i32, ptr %11, align 4
  %81 = sext i32 %80 to i64
  %82 = getelementptr inbounds i32, ptr %79, i64 %81
  store i32 %76, ptr %82, align 4
  %83 = load ptr, ptr %13, align 8
  %84 = getelementptr inbounds nuw %struct.PartitionRangeDatum, ptr %83, i32 0, i32 1
  %85 = load i32, ptr %84, align 4
  %86 = icmp eq i32 %85, 0
  br i1 %86, label %87, label %116

87:                                               ; preds = %71
  call void @llvm.lifetime.start.p0(i64 8, ptr %14) #9
  %88 = load ptr, ptr %13, align 8
  %89 = getelementptr inbounds nuw %struct.PartitionRangeDatum, ptr %88, i32 0, i32 2
  %90 = load ptr, ptr %89, align 8
  store ptr %90, ptr %14, align 8
  %91 = load ptr, ptr %14, align 8
  %92 = getelementptr inbounds nuw %struct.Const, ptr %91, i32 0, i32 6
  %93 = load i8, ptr %92, align 8, !range !6, !noundef !7
  %94 = trunc i8 %93 to i1
  br i1 %94, label %95, label %106

95:                                               ; preds = %87
  br label %96

96:                                               ; preds = %95
  br i1 true, label %97, label %99

97:                                               ; preds = %96
  %98 = call zeroext i1 @errstart_cold(i32 noundef 21, ptr noundef null) #10
  br i1 %98, label %101, label %103

99:                                               ; preds = %96
  %100 = call zeroext i1 @errstart(i32 noundef 21, ptr noundef null)
  br i1 %100, label %101, label %103

101:                                              ; preds = %99, %97
  %102 = call i32 (ptr, ...) @errmsg_internal(ptr noundef @.str.23)
  call void @errfinish(ptr noundef @.str.1, i32 noundef 3456, ptr noundef @__func__.make_one_partition_rbound)
  br label %103

103:                                              ; preds = %101, %99, %97
  unreachable

104:                                              ; No predecessors!
  br label %105

105:                                              ; preds = %104
  br label %106

106:                                              ; preds = %105, %87
  %107 = load ptr, ptr %14, align 8
  %108 = getelementptr inbounds nuw %struct.Const, ptr %107, i32 0, i32 5
  %109 = load i64, ptr %108, align 8
  %110 = load ptr, ptr %9, align 8
  %111 = getelementptr inbounds nuw %struct.PartitionRangeBound, ptr %110, i32 0, i32 1
  %112 = load ptr, ptr %111, align 8
  %113 = load i32, ptr %11, align 4
  %114 = sext i32 %113 to i64
  %115 = getelementptr inbounds i64, ptr %112, i64 %114
  store i64 %109, ptr %115, align 8
  call void @llvm.lifetime.end.p0(i64 8, ptr %14) #9
  br label %116

116:                                              ; preds = %106, %71
  %117 = load i32, ptr %11, align 4
  %118 = add i32 %117, 1
  store i32 %118, ptr %11, align 4
  call void @llvm.lifetime.end.p0(i64 8, ptr %13) #9
  br label %119

119:                                              ; preds = %116
  %120 = getelementptr inbounds nuw %struct.ForEachState, ptr %12, i32 0, i32 1
  %121 = load i32, ptr %120, align 8
  %122 = add i32 %121, 1
  store i32 %122, ptr %120, align 8
  br label %45, !llvm.loop !40

123:                                              ; preds = %70
  %124 = load ptr, ptr %9, align 8
  call void @llvm.lifetime.end.p0(i64 4, ptr %11) #9
  call void @llvm.lifetime.end.p0(i64 8, ptr %10) #9
  call void @llvm.lifetime.end.p0(i64 8, ptr %9) #9
  ret ptr %124
}