; Function Attrs: nounwind uwtable
define internal fastcc noundef ptr @make_one_partition_rbound(ptr noundef readonly captures(none) %0, i32 noundef %1, ptr noundef readonly captures(address_is_null) %2, i1 noundef zeroext %3) unnamed_addr #0 {
  %5 = zext i1 %3 to i8
  %6 = tail call ptr @palloc0(i64 noundef 32) #12
  store i32 %1, ptr %6, align 8
  %7 = getelementptr inbounds nuw i8, ptr %0, i64 4
  %8 = load i16, ptr %7, align 4
  %9 = sext i16 %8 to i64
  %10 = shl nsw i64 %9, 3
  %11 = tail call ptr @palloc0(i64 noundef %10) #12
  %12 = getelementptr inbounds nuw i8, ptr %6, i64 8
  store ptr %11, ptr %12, align 8
  %13 = load i16, ptr %7, align 4
  %14 = sext i16 %13 to i64
  %15 = shl nsw i64 %14, 2
  %16 = tail call ptr @palloc0(i64 noundef %15) #12
  %17 = getelementptr inbounds nuw i8, ptr %6, i64 16
  store ptr %16, ptr %17, align 8
  %18 = getelementptr inbounds nuw i8, ptr %6, i64 24
  store i8 %5, ptr %18, align 8
  %.not = icmp eq ptr %2, null
  br i1 %.not, label %._crit_edge, label %.lr.ph

.lr.ph:                                           ; preds = %4
  %19 = getelementptr inbounds nuw i8, ptr %2, i64 4
  %20 = getelementptr inbounds nuw i8, ptr %2, i64 16
  %21 = load i32, ptr %19, align 4
  %22 = icmp sgt i32 %21, 0
  br i1 %22, label %.lr.ph34, label %._crit_edge

._crit_edge:                                      ; preds = %44, %.lr.ph, %4
  ret ptr %6

.lr.ph34:                                         ; preds = %.lr.ph, %44
  %indvars.iv = phi i64 [ %indvars.iv.next, %44 ], [ 0, %.lr.ph ]
  %23 = load ptr, ptr %20, align 8
  %24 = getelementptr inbounds nuw %union.ListCell, ptr %23, i64 %indvars.iv
  %25 = load ptr, ptr %24, align 8
  %26 = getelementptr inbounds nuw i8, ptr %25, i64 4
  %27 = load i32, ptr %26, align 4
  %28 = load ptr, ptr %17, align 8
  %29 = getelementptr inbounds nuw i32, ptr %28, i64 %indvars.iv
  store i32 %27, ptr %29, align 4
  %30 = icmp eq i32 %27, 0
  br i1 %30, label %31, label %44

31:                                               ; preds = %.lr.ph34
  %32 = getelementptr inbounds nuw i8, ptr %25, i64 8
  %33 = load ptr, ptr %32, align 8
  %34 = getelementptr inbounds nuw i8, ptr %33, i64 32
  %35 = load i8, ptr %34, align 8, !range !6, !noundef !7
  %36 = trunc nuw i8 %35 to i1
  br i1 %36, label %.split, label %39

.split:                                           ; preds = %31
  %37 = tail call zeroext i1 @errstart_cold(i32 noundef 21, ptr noundef null) #13
  tail call void @llvm.assume(i1 %37)
  %38 = tail call i32 (ptr, ...) @errmsg_internal(ptr noundef nonnull @.str.23) #12
  tail call void @errfinish(ptr noundef nonnull @.str.1, i32 noundef 3456, ptr noundef nonnull @__func__.make_one_partition_rbound) #12
  unreachable

39:                                               ; preds = %31
  %40 = getelementptr inbounds nuw i8, ptr %33, i64 24
  %41 = load i64, ptr %40, align 8
  %42 = load ptr, ptr %12, align 8
  %43 = getelementptr inbounds nuw i64, ptr %42, i64 %indvars.iv
  store i64 %41, ptr %43, align 8
  br label %44

44:                                               ; preds = %39, %.lr.ph34
  %indvars.iv.next = add nuw nsw i64 %indvars.iv, 1
  %45 = load i32, ptr %19, align 4
  %46 = sext i32 %45 to i64
  %47 = icmp slt i64 %indvars.iv.next, %46
  br i1 %47, label %.lr.ph34, label %._crit_edge
}